
a.out:     file format elf64-powerpcle


Disassembly of section .init:

00000000100003a0 <00000024.plt_call.__gmon_start__>:
    100003a0:	18 00 41 f8 	std     r2,24(r1)
    100003a4:	18 81 82 e9 	ld      r12,-32488(r2)
    100003a8:	a6 03 89 7d 	mtctr   r12
    100003ac:	20 04 80 4e 	bctr
	...

00000000100003c0 <_init>:
    100003c0:	02 10 40 3c 	lis     r2,4098
    100003c4:	00 7f 42 38 	addi    r2,r2,32512
    100003c8:	a6 02 08 7c 	mflr    r0
    100003cc:	10 00 01 f8 	std     r0,16(r1)
    100003d0:	a1 ff 21 f8 	stdu    r1,-96(r1)
    100003d4:	00 00 00 60 	nop
    100003d8:	08 80 02 e8 	ld      r0,-32760(r2)
    100003dc:	00 00 a0 2f 	cmpdi   cr7,r0,0
    100003e0:	0c 00 fe 41 	beq+    cr7,100003ec <_init+0x2c>
    100003e4:	bd ff ff 4b 	bl      100003a0 <00000024.plt_call.__gmon_start__>
    100003e8:	18 00 41 e8 	ld      r2,24(r1)
    100003ec:	60 00 21 38 	addi    r1,r1,96
    100003f0:	10 00 01 e8 	ld      r0,16(r1)
    100003f4:	a6 03 08 7c 	mtlr    r0
    100003f8:	20 00 80 4e 	blr

Disassembly of section .text:

0000000010000400 <00000036.plt_call.__libc_start_main@@GLIBC_2.17>:
    10000400:	18 00 41 f8 	std     r2,24(r1)
    10000404:	10 81 82 e9 	ld      r12,-32496(r2)
    10000408:	a6 03 89 7d 	mtctr   r12
    1000040c:	20 04 80 4e 	bctr
	...

0000000010000420 <main>:
    10000420:	02 10 40 3c 	lis     r2,4098
    10000424:	00 7f 42 38 	addi    r2,r2,32512
    10000428:	64 00 c0 38 	li      r6,100
    1000042c:	00 00 00 60 	nop
    10000430:	78 87 e2 38 	addi    r7,r2,-30856
    10000434:	00 00 00 60 	nop
    10000438:	38 81 02 39 	addi    r8,r2,-32456
    1000043c:	00 00 00 60 	nop
    10000440:	58 84 42 39 	addi    r10,r2,-31656
    10000444:	00 00 20 39 	li      r9,0
    10000448:	a6 03 c9 7c 	mtctr   r6
    1000044c:	14 00 00 48 	b       10000460 <main+0x40>
    10000450:	00 00 00 60 	nop
    10000454:	00 00 00 60 	nop
    10000458:	00 00 00 60 	nop
    1000045c:	00 00 42 60 	ori     r2,r2,0
    10000460:	ae 4c 08 7c 	lfdx    f0,r8,r9
    10000464:	ae 4c 8a 7d 	lfdx    f12,r10,r9
    10000468:	2a 60 00 fc 	fadd    f0,f0,f12
    1000046c:	ae 4d 07 7c 	stfdx   f0,r7,r9
    10000470:	08 00 29 39 	addi    r9,r9,8
    10000474:	ec ff 00 42 	bdnz    10000460 <main+0x40>
    10000478:	00 00 60 38 	li      r3,0
    1000047c:	20 00 80 4e 	blr
	...

000000001000048c <_start>:
    1000048c:	02 10 40 3c 	lis     r2,4098
    10000490:	00 7f 42 38 	addi    r2,r2,32512
    10000494:	78 0b 29 7c 	mr      r9,r1
    10000498:	e4 06 21 78 	rldicr  r1,r1,0,59
    1000049c:	00 00 00 38 	li      r0,0
    100004a0:	81 ff 21 f8 	stdu    r1,-128(r1)
    100004a4:	a6 03 08 7c 	mtlr    r0
    100004a8:	00 00 01 f8 	std     r0,0(r1)
    100004ac:	10 80 02 e9 	ld      r8,-32752(r2)
    100004b0:	50 ff ff 4b 	b       10000400 <00000036.plt_call.__libc_start_main@@GLIBC_2.17>
    100004b4:	00 00 00 60 	nop
	...
    100004c0:	40 20 0c 00 	.long 0xc2040
    100004c4:	2c 00 00 00 	.long 0x2c
    100004c8:	06 00 5f 73 	andi.   r31,r26,6
    100004cc:	74 61 72 74 	andis.  r18,r3,24948

00000000100004d0 <deregister_tm_clones>:
    100004d0:	02 10 40 3c 	lis     r2,4098
    100004d4:	00 7f 42 38 	addi    r2,r2,32512
    100004d8:	00 00 00 60 	nop
    100004dc:	00 00 00 60 	nop
    100004e0:	30 81 62 38 	addi    r3,r2,-32464
    100004e4:	30 81 22 39 	addi    r9,r2,-32464
    100004e8:	00 18 29 7c 	cmpd    r9,r3
    100004ec:	20 00 82 4d 	beqlr   
    100004f0:	00 00 00 60 	nop
    100004f4:	18 80 82 e9 	ld      r12,-32744(r2)
    100004f8:	00 00 2c 2c 	cmpdi   r12,0
    100004fc:	20 00 82 4d 	beqlr   
    10000500:	a6 02 08 7c 	mflr    r0
    10000504:	a6 03 89 7d 	mtctr   r12
    10000508:	10 00 01 f8 	std     r0,16(r1)
    1000050c:	e1 ff 21 f8 	stdu    r1,-32(r1)
    10000510:	18 00 41 f8 	std     r2,24(r1)
    10000514:	21 04 80 4e 	bctrl
    10000518:	18 00 41 e8 	ld      r2,24(r1)
    1000051c:	20 00 21 38 	addi    r1,r1,32
    10000520:	10 00 01 e8 	ld      r0,16(r1)
    10000524:	a6 03 08 7c 	mtlr    r0
    10000528:	20 00 80 4e 	blr
    1000052c:	00 00 42 60 	ori     r2,r2,0

0000000010000530 <register_tm_clones>:
    10000530:	02 10 40 3c 	lis     r2,4098
    10000534:	00 7f 42 38 	addi    r2,r2,32512
    10000538:	00 00 00 60 	nop
    1000053c:	00 00 00 60 	nop
    10000540:	30 81 62 38 	addi    r3,r2,-32464
    10000544:	30 81 82 38 	addi    r4,r2,-32464
    10000548:	50 20 83 7c 	subf    r4,r3,r4
    1000054c:	74 1e 84 7c 	sradi   r4,r4,3
    10000550:	74 0e 84 7c 	sradi   r4,r4,1
    10000554:	95 01 84 7c 	addze.  r4,r4
    10000558:	20 00 82 4d 	beqlr   
    1000055c:	00 00 00 60 	nop
    10000560:	20 80 82 e9 	ld      r12,-32736(r2)
    10000564:	00 00 2c 2c 	cmpdi   r12,0
    10000568:	20 00 82 4d 	beqlr   
    1000056c:	a6 02 08 7c 	mflr    r0
    10000570:	a6 03 89 7d 	mtctr   r12
    10000574:	10 00 01 f8 	std     r0,16(r1)
    10000578:	e1 ff 21 f8 	stdu    r1,-32(r1)
    1000057c:	18 00 41 f8 	std     r2,24(r1)
    10000580:	21 04 80 4e 	bctrl
    10000584:	18 00 41 e8 	ld      r2,24(r1)
    10000588:	20 00 21 38 	addi    r1,r1,32
    1000058c:	10 00 01 e8 	ld      r0,16(r1)
    10000590:	a6 03 08 7c 	mtlr    r0
    10000594:	20 00 80 4e 	blr
    10000598:	00 00 00 60 	nop
    1000059c:	00 00 42 60 	ori     r2,r2,0

00000000100005a0 <__do_global_dtors_aux>:
    100005a0:	02 10 40 3c 	lis     r2,4098
    100005a4:	00 7f 42 38 	addi    r2,r2,32512
    100005a8:	f8 ff e1 fb 	std     r31,-8(r1)
    100005ac:	00 00 00 60 	nop
    100005b0:	d1 ff 21 f8 	stdu    r1,-48(r1)
    100005b4:	30 81 22 89 	lbz     r9,-32464(r2)
    100005b8:	00 00 09 2c 	cmpwi   r9,0
    100005bc:	20 00 82 40 	bne     100005dc <__do_global_dtors_aux+0x3c>
    100005c0:	a6 02 08 7c 	mflr    r0
    100005c4:	40 00 01 f8 	std     r0,64(r1)
    100005c8:	11 ff ff 4b 	bl      100004d8 <deregister_tm_clones+0x8>
    100005cc:	40 00 01 e8 	ld      r0,64(r1)
    100005d0:	01 00 20 39 	li      r9,1
    100005d4:	30 81 22 99 	stb     r9,-32464(r2)
    100005d8:	a6 03 08 7c 	mtlr    r0
    100005dc:	30 00 21 38 	addi    r1,r1,48
    100005e0:	f8 ff e1 eb 	ld      r31,-8(r1)
    100005e4:	20 00 80 4e 	blr
    100005e8:	00 00 00 60 	nop
    100005ec:	00 00 42 60 	ori     r2,r2,0

00000000100005f0 <frame_dummy>:
    100005f0:	02 10 40 3c 	lis     r2,4098
    100005f4:	00 7f 42 38 	addi    r2,r2,32512
    100005f8:	40 ff ff 4b 	b       10000538 <register_tm_clones+0x8>
    100005fc:	00 00 00 60 	nop

0000000010000600 <__libc_csu_init>:
    10000600:	02 10 40 3c 	lis     r2,4098
    10000604:	00 7f 42 38 	addi    r2,r2,32512
    10000608:	a6 02 08 7c 	mflr    r0
    1000060c:	d0 ff 41 fb 	std     r26,-48(r1)
    10000610:	d8 ff 61 fb 	std     r27,-40(r1)
    10000614:	78 2b ba 7c 	mr      r26,r5
    10000618:	e0 ff 81 fb 	std     r28,-32(r1)
    1000061c:	e8 ff a1 fb 	std     r29,-24(r1)
    10000620:	ff ff a2 3f 	addis   r29,r2,-1
    10000624:	78 1b 7c 7c 	mr      r28,r3
    10000628:	f0 ff c1 fb 	std     r30,-16(r1)
    1000062c:	ff ff c2 3f 	addis   r30,r2,-1
    10000630:	f8 7d bd 3b 	addi    r29,r29,32248
    10000634:	f0 7d de 3b 	addi    r30,r30,32240
    10000638:	78 23 9b 7c 	mr      r27,r4
    1000063c:	50 e8 be 7f 	subf    r29,r30,r29
    10000640:	10 00 01 f8 	std     r0,16(r1)
    10000644:	b1 ff 21 f8 	stdu    r1,-80(r1)
    10000648:	81 fd ff 4b 	bl      100003c8 <_init+0x8>
    1000064c:	00 00 00 60 	nop
    10000650:	75 1e bd 7f 	sradi.  r29,r29,3
    10000654:	50 00 82 41 	beq     100006a4 <__libc_csu_init+0xa4>
    10000658:	48 00 e1 fb 	std     r31,72(r1)
    1000065c:	f8 ff de 3b 	addi    r30,r30,-8
    10000660:	00 00 e0 3b 	li      r31,0
    10000664:	00 00 00 60 	nop
    10000668:	00 00 00 60 	nop
    1000066c:	00 00 42 60 	ori     r2,r2,0
    10000670:	09 00 3e e9 	ldu     r9,8(r30)
    10000674:	78 d3 45 7f 	mr      r5,r26
    10000678:	18 00 41 f8 	std     r2,24(r1)
    1000067c:	78 db 64 7f 	mr      r4,r27
    10000680:	78 e3 83 7f 	mr      r3,r28
    10000684:	01 00 ff 3b 	addi    r31,r31,1
    10000688:	a6 03 29 7d 	mtctr   r9
    1000068c:	78 4b 2c 7d 	mr      r12,r9
    10000690:	21 04 80 4e 	bctrl
    10000694:	18 00 41 e8 	ld      r2,24(r1)
    10000698:	40 f8 bd 7f 	cmpld   cr7,r29,r31
    1000069c:	d4 ff 9e 40 	bne     cr7,10000670 <__libc_csu_init+0x70>
    100006a0:	48 00 e1 eb 	ld      r31,72(r1)
    100006a4:	50 00 21 38 	addi    r1,r1,80
    100006a8:	10 00 01 e8 	ld      r0,16(r1)
    100006ac:	d0 ff 41 eb 	ld      r26,-48(r1)
    100006b0:	d8 ff 61 eb 	ld      r27,-40(r1)
    100006b4:	e0 ff 81 eb 	ld      r28,-32(r1)
    100006b8:	e8 ff a1 eb 	ld      r29,-24(r1)
    100006bc:	f0 ff c1 eb 	ld      r30,-16(r1)
    100006c0:	a6 03 08 7c 	mtlr    r0
    100006c4:	20 00 80 4e 	blr
    100006c8:	00 00 00 00 	.long 0x0
    100006cc:	00 00 00 01 	.long 0x1000000
    100006d0:	80 06 00 00 	.long 0x680
    100006d4:	00 00 00 60 	nop
    100006d8:	00 00 00 60 	nop
    100006dc:	00 00 42 60 	ori     r2,r2,0

00000000100006e0 <__libc_csu_fini>:
    100006e0:	20 00 80 4e 	blr
	...
    100006f0:	00 f9 01 00 	.long 0x1f900
    100006f4:	00 00 00 00 	.long 0x0

00000000100006f8 <__glink_PLTresolve>:
    100006f8:	a6 02 08 7c 	mflr    r0
    100006fc:	05 00 9f 42 	bcl     20,4*cr7+so,10000700 <__glink_PLTresolve+0x8>
    10000700:	a6 02 68 7d 	mflr    r11
    10000704:	18 00 41 f8 	std     r2,24(r1)
    10000708:	f0 ff 4b e8 	ld      r2,-16(r11)
    1000070c:	a6 03 08 7c 	mtlr    r0
    10000710:	50 60 8b 7d 	subf    r12,r11,r12
    10000714:	14 5a 62 7d 	add     r11,r2,r11
    10000718:	d0 ff 0c 38 	addi    r0,r12,-48
    1000071c:	00 00 8b e9 	ld      r12,0(r11)
    10000720:	82 f0 00 78 	rldicl  r0,r0,62,2
    10000724:	a6 03 89 7d 	mtctr   r12
    10000728:	08 00 6b e9 	ld      r11,8(r11)
    1000072c:	20 04 80 4e 	bctr

0000000010000730 <__libc_start_main@plt>:
    10000730:	c8 ff ff 4b 	b       100006f8 <__glink_PLTresolve>

0000000010000734 <__gmon_start__@plt>:
    10000734:	c4 ff ff 4b 	b       100006f8 <__glink_PLTresolve>

Disassembly of section .fini:

0000000010000738 <_fini>:
    10000738:	02 10 40 3c 	lis     r2,4098
    1000073c:	00 7f 42 38 	addi    r2,r2,32512
    10000740:	a6 02 08 7c 	mflr    r0
    10000744:	10 00 01 f8 	std     r0,16(r1)
    10000748:	a1 ff 21 f8 	stdu    r1,-96(r1)
    1000074c:	60 00 21 38 	addi    r1,r1,96
    10000750:	10 00 01 e8 	ld      r0,16(r1)
    10000754:	a6 03 08 7c 	mtlr    r0
    10000758:	20 00 80 4e 	blr
